BL51 BANKED LINKER/LOCATER V6.00                                                        09/09/2014  23:06:00  PAGE 1


BL51 BANKED LINKER/LOCATER V6.00, INVOKED BY:
C:\KEIL3\C51\BIN\BL51.EXE .\BIN\main.obj, .\BIN\A7139.obj, .\BIN\PLATFORM.obj TO .\BIN\Test0_Sender PRINT (.\LIST\Test0_
>> Sender.m51) RAMSIZE (256)


MEMORY MODEL: SMALL WITH FLOATING POINT ARITHMETIC


INPUT MODULES INCLUDED:
  .\BIN\main.obj (MAIN)
  .\BIN\A7139.obj (A7139)
  .\BIN\PLATFORM.obj (PLATFORM)
  C:\KEIL3\C51\LIB\C51FPS.LIB (?C?FPADD)
  C:\KEIL3\C51\LIB\C51FPS.LIB (?C?FPMUL)
  C:\KEIL3\C51\LIB\C51FPS.LIB (?C?FPDIV)
  C:\KEIL3\C51\LIB\C51FPS.LIB (?C?FPCMP)
  C:\KEIL3\C51\LIB\C51FPS.LIB (?C?FCAST)
  C:\KEIL3\C51\LIB\C51FPS.LIB (?C?CASTF)
  C:\KEIL3\C51\LIB\C51FPS.LIB (?C?FPGETOPN)
  C:\KEIL3\C51\LIB\C51S.LIB (?C_STARTUP)
  C:\KEIL3\C51\LIB\C51S.LIB (?C?LNEG)
  C:\KEIL3\C51\LIB\C51S.LIB (?C?ULSHR)


LINK MAP OF MODULE:  .\BIN\Test0_Sender (MAIN)


            TYPE    BASE      LENGTH    RELOCATION   SEGMENT NAME
            -----------------------------------------------------

            * * * * * * *   D A T A   M E M O R Y   * * * * * * *
            REG     0000H     0008H     ABSOLUTE     "REG BANK 0"
            DATA    0008H     001AH     UNIT         _DATA_GROUP_
            DATA    0022H     0007H     UNIT         ?DT?_A7139_SETDATARATE?A7139
            DATA    0029H     0003H     UNIT         ?DT?A7139_GETRSSI?A7139
            DATA    002CH     0003H     UNIT         ?DT?A7139_RCOSC_CAL?A7139
            DATA    002FH     0001H     UNIT         ?DT?_A7139_SETPACKLEN?A7139
            DATA    0030H     0001H     UNIT         ?DT?_A7139_ISBATTERYLOW?A7139
            IDATA   0031H     0040H     UNIT         ?ID?MAIN
            IDATA   0071H     0001H     UNIT         ?STACK

            * * * * * * *   C O D E   M E M O R Y   * * * * * * *
            CODE    0000H     0003H     ABSOLUTE     
            CODE    0003H     03EBH     UNIT         ?C?LIB_CODE
            CODE    03EEH     010EH     UNIT         ?PR?A7139_CAL?A7139
            CODE    04FCH     00E4H     UNIT         ?PR?_A7139_SETFREQ?A7139
            CODE    05E0H     00BCH     UNIT         ?PR?_A7139_SETDATARATE?A7139
            CODE    069CH     009AH     UNIT         ?PR?A7139_CONFIG?A7139
            CODE    0736H     0070H     UNIT         ?PR?A7139_RCOSC_CAL?A7139
            CODE    07A6H     0067H     UNIT         ?PR?A7139_GETRSSI?A7139
            CODE    080DH     005DH     UNIT         ?PR?_A7139_ISBATTERYLOW?A7139
            CODE    086AH     004AH     UNIT         ?CO?A7139
            CODE    08B4H     0047H     UNIT         ?PR?_A7139_SETCID?A7139
            CODE    08FBH     0044H     UNIT         ?PR?MAIN?MAIN
            CODE    093FH     003AH     UNIT         ?PR?_A7139_INIT?A7139
            CODE    0979H     0036H     UNIT         ?PR?A7139_WOT?A7139
            CODE    09AFH     0035H     UNIT         ?PR?A7139_WOR_BYSYNC?A7139
            CODE    09E4H     0035H     UNIT         ?PR?A7139_WOR_BYPREAMBLE?A7139
BL51 BANKED LINKER/LOCATER V6.00                                                      09/09/2014  23:06:00  PAGE 2


            CODE    0A19H     0032H     UNIT         ?PR?_A7139_SETPACKLEN?A7139
            CODE    0A4BH     002FH     UNIT         ?PR?_A7139_WRITEPAGEB?A7139
            CODE    0A7AH     002EH     UNIT         ?PR?SPIX_READWORD?PLATFORM
            CODE    0AA8H     002BH     UNIT         ?PR?_A7139_WRITEPAGEA?A7139
            CODE    0AD3H     0025H     UNIT         ?PR?A7139_READFIFO?MAIN
            CODE    0AF8H     0022H     UNIT         ?PR?_A7139_WRITEREG?A7139
            CODE    0B1AH     0020H     UNIT         ?PR?A7139_WRITEFIFO?MAIN
            CODE    0B3AH     001DH     UNIT         ?PR?_A7139_READPAGEA?A7139
            CODE    0B57H     001DH     UNIT         ?PR?_SPIX_WRITEWORD?PLATFORM
            CODE    0B74H     001BH     UNIT         ?PR?A7139_READPID?A7139
            CODE    0B8FH     001BH     UNIT         ?PR?_SPIX_WRITEBYTE?PLATFORM
            CODE    0BAAH     001AH     UNIT         ?PR?SPIX_READBYTE?PLATFORM
            CODE    0BC4H     0018H     UNIT         ?PR?LED_FLASH_TWICE?MAIN
            CODE    0BDCH     0018H     UNIT         ?PR?_DELAY10MS?PLATFORM
            CODE    0BF4H     0014H     UNIT         ?PR?UART_INIT?MAIN
            CODE    0C08H     0012H     UNIT         ?PR?_DELAY10US?PLATFORM
            CODE    0C1AH     000FH     UNIT         ?PR?_A7139_READREG?A7139
            CODE    0C29H     000CH     UNIT         ?PR?C51_SENDDATA?MAIN
            CODE    0C35H     000CH     UNIT         ?C_C51STARTUP
            CODE    0C41H     000BH     UNIT         ?PR?C51_RECVDATA?MAIN
            CODE    0C4CH     0008H     UNIT         ?PR?_STROBECMD?A7139



OVERLAY MAP OF MODULE:   .\BIN\Test0_Sender (MAIN)


SEGMENT                                  DATA_GROUP 
  +--> CALLED SEGMENT                  START    LENGTH
------------------------------------------------------
?C_C51STARTUP                          -----    -----
  +--> ?PR?MAIN?MAIN

?PR?MAIN?MAIN                          0008H    0001H
  +--> ?PR?UART_INIT?MAIN
  +--> ?PR?_A7139_INIT?A7139
  +--> ?PR?LED_FLASH_TWICE?MAIN
  +--> ?PR?_DELAY10MS?PLATFORM
  +--> ?PR?C51_SENDDATA?MAIN
  +--> ?PR?C51_RECVDATA?MAIN

?PR?_A7139_INIT?A7139                  0009H    0004H
  +--> ?PR?_STROBECMD?A7139
  +--> ?PR?A7139_CONFIG?A7139
  +--> ?PR?_DELAY10MS?PLATFORM
  +--> ?PR?_A7139_SETCID?A7139
  +--> ?PR?_A7139_SETFREQ?A7139
  +--> ?PR?A7139_CAL?A7139

?PR?_STROBECMD?A7139                   -----    -----
  +--> ?PR?_SPIX_WRITEBYTE?PLATFORM

?PR?A7139_CONFIG?A7139                 000DH    0001H
  +--> ?CO?A7139
  +--> ?PR?_A7139_WRITEREG?A7139
  +--> ?PR?_A7139_WRITEPAGEA?A7139
  +--> ?PR?_A7139_WRITEPAGEB?A7139
BL51 BANKED LINKER/LOCATER V6.00                                                      09/09/2014  23:06:00  PAGE 3



?PR?_A7139_WRITEREG?A7139              0020H    0002H
  +--> ?CO?A7139
  +--> ?PR?_SPIX_WRITEBYTE?PLATFORM
  +--> ?PR?_SPIX_WRITEWORD?PLATFORM

?PR?_A7139_WRITEPAGEA?A7139            0016H    0002H
  +--> ?CO?A7139
  +--> ?PR?_A7139_WRITEREG?A7139

?PR?_A7139_WRITEPAGEB?A7139            001EH    0002H
  +--> ?CO?A7139
  +--> ?PR?_A7139_WRITEREG?A7139

?PR?_A7139_SETCID?A7139                000DH    0004H
  +--> ?PR?_SPIX_WRITEBYTE?PLATFORM

?PR?_A7139_SETFREQ?A7139               000DH    0011H
  +--> ?PR?_STROBECMD?A7139
  +--> ?CO?A7139
  +--> ?PR?_A7139_WRITEREG?A7139
  +--> ?PR?_A7139_WRITEPAGEB?A7139

?PR?A7139_CAL?A7139                    000DH    0009H
  +--> ?CO?A7139
  +--> ?PR?_A7139_WRITEREG?A7139
  +--> ?PR?_A7139_READREG?A7139
  +--> ?PR?_A7139_READPAGEA?A7139
  +--> ?PR?_A7139_WRITEPAGEA?A7139

?PR?_A7139_READREG?A7139               -----    -----
  +--> ?PR?_SPIX_WRITEBYTE?PLATFORM
  +--> ?PR?SPIX_READWORD?PLATFORM

?PR?_A7139_READPAGEA?A7139             -----    -----
  +--> ?CO?A7139
  +--> ?PR?_A7139_WRITEREG?A7139
  +--> ?PR?_A7139_READREG?A7139

?PR?LED_FLASH_TWICE?MAIN               -----    -----
  +--> ?PR?_DELAY10MS?PLATFORM

?PR?C51_SENDDATA?MAIN                  -----    -----
  +--> ?PR?A7139_WRITEFIFO?MAIN
  +--> ?PR?_STROBECMD?A7139

?PR?A7139_WRITEFIFO?MAIN               0009H    0001H
  +--> ?PR?_STROBECMD?A7139
  +--> ?PR?_SPIX_WRITEBYTE?PLATFORM

?PR?C51_RECVDATA?MAIN                  -----    -----
  +--> ?PR?_STROBECMD?A7139
  +--> ?PR?A7139_READFIFO?MAIN

?PR?A7139_READFIFO?MAIN                0009H    0001H
  +--> ?PR?_STROBECMD?A7139
  +--> ?PR?_SPIX_WRITEBYTE?PLATFORM
BL51 BANKED LINKER/LOCATER V6.00                                                      09/09/2014  23:06:00  PAGE 4


  +--> ?PR?SPIX_READBYTE?PLATFORM



SYMBOL TABLE OF MODULE:  .\BIN\Test0_Sender (MAIN)

  VALUE           TYPE          NAME
  ----------------------------------

  -------         MODULE        MAIN
  C:0000H         SYMBOL        _ICE_DUMMY_
  C:0BC4H         PUBLIC        LED_Flash_Twice
  I:0031H         PUBLIC        tmpbuf
  B:0080H.2       PUBLIC        P0_2
  C:0C29H         PUBLIC        C51_SendData
  B:0080H.6       PUBLIC        P0_6
  B:00A8H.4       PUBLIC        ES
  C:0C41H         PUBLIC        C51_RecvData
  B:00B0H.6       PUBLIC        P3_6
  B:00B0H.7       PUBLIC        P3_7
  C:0AD3H         PUBLIC        A7139_ReadFIFO
  B:0098H.1       PUBLIC        TI
  C:08FBH         PUBLIC        main
  C:0B1AH         PUBLIC        A7139_WriteFIFO
  D:0099H         PUBLIC        SBUF
  C:0BF4H         SYMBOL        UART_Init
  D:0089H         PUBLIC        TMOD
  D:008DH         PUBLIC        TH1
  B:0098H.7       PUBLIC        SM0
  B:0098H.6       PUBLIC        SM1
  D:008BH         PUBLIC        TL1
  B:0088H.6       PUBLIC        TR1
  B:0098H.4       PUBLIC        REN
  -------         PROC          UART_INIT
  C:0BF4H         LINE#         11
  C:0BF4H         LINE#         12
  C:0BF4H         LINE#         13
  C:0BF6H         LINE#         14
  C:0BF8H         LINE#         15
  C:0BFAH         LINE#         16
  C:0BFDH         LINE#         17
  C:0C00H         LINE#         18
  C:0C03H         LINE#         19
  C:0C05H         LINE#         20
  C:0C07H         LINE#         21
  -------         ENDPROC       UART_INIT
  -------         PROC          LED_FLASH_TWICE
  C:0BC4H         LINE#         23
  C:0BC4H         LINE#         24
  C:0BC4H         LINE#         25
  C:0BC6H         LINE#         26
  C:0BCBH         LINE#         27
  C:0BCDH         LINE#         28
  C:0BD2H         LINE#         29
  C:0BD4H         LINE#         30
  C:0BD9H         LINE#         31
  C:0BDBH         LINE#         32
BL51 BANKED LINKER/LOCATER V6.00                                                      09/09/2014  23:06:00  PAGE 5


  -------         ENDPROC       LED_FLASH_TWICE
  -------         PROC          A7139_WRITEFIFO
  -------         DO            
  D:0009H         SYMBOL        i
  -------         ENDDO         
  C:0B1AH         LINE#         34
  C:0B1AH         LINE#         35
  C:0B1AH         LINE#         37
  C:0B1FH         LINE#         38
  C:0B21H         LINE#         39
  C:0B26H         LINE#         40
  C:0B29H         LINE#         41
  C:0B37H         LINE#         42
  C:0B39H         LINE#         43
  -------         ENDPROC       A7139_WRITEFIFO
  -------         PROC          A7139_READFIFO
  -------         DO            
  D:0009H         SYMBOL        i
  -------         ENDDO         
  C:0AD3H         LINE#         45
  C:0AD3H         LINE#         46
  C:0AD3H         LINE#         48
  C:0AD8H         LINE#         49
  C:0ADAH         LINE#         50
  C:0ADFH         LINE#         51
  C:0AE2H         LINE#         52
  C:0AF5H         LINE#         53
  C:0AF7H         LINE#         54
  -------         ENDPROC       A7139_READFIFO
  -------         PROC          C51_SENDDATA
  C:0C29H         LINE#         55
  C:0C29H         LINE#         56
  C:0C29H         LINE#         57
  C:0C2CH         LINE#         58
  C:0C31H         LINE#         59
  C:0C34H         LINE#         60
  -------         ENDPROC       C51_SENDDATA
  -------         PROC          C51_RECVDATA
  C:0C41H         LINE#         61
  C:0C41H         LINE#         62
  C:0C41H         LINE#         63
  C:0C46H         LINE#         64
  C:0C49H         LINE#         65
  -------         ENDPROC       C51_RECVDATA
  -------         PROC          MAIN
  -------         DO            
  D:0008H         SYMBOL        i
  -------         ENDDO         
  C:08FBH         LINE#         68
  C:08FBH         LINE#         69
  C:08FBH         LINE#         71
  C:08FEH         LINE#         72
  C:0909H         LINE#         73
  C:090CH         LINE#         74
  C:090CH         LINE#         75
  C:090CH         LINE#         76
  C:090FH         LINE#         77
BL51 BANKED LINKER/LOCATER V6.00                                                      09/09/2014  23:06:00  PAGE 6


  C:090FH         LINE#         78
  C:0914H         LINE#         79
  C:0917H         LINE#         80
  C:0917H         LINE#         81
  C:0919H         LINE#         82
  C:091CH         LINE#         83
  C:091EH         LINE#         84
  C:0921H         LINE#         85
  C:0924H         LINE#         86
  C:092EH         LINE#         87
  C:092EH         LINE#         88
  C:0936H         LINE#         89
  C:0939H         LINE#         90
  C:093BH         LINE#         91
  -------         ENDPROC       MAIN
  -------         ENDMOD        MAIN

  -------         MODULE        A7139
  C:0000H         SYMBOL        _ICE_DUMMY_
  C:0B06H         PUBLIC        _A7139_WriteReg
  C:03EEH         PUBLIC        A7139_Cal
  C:05E0H         PUBLIC        _A7139_SetDataRate
  C:088AH         PUBLIC        A7139Config_PageA
  B:0080H.2       PUBLIC        P0_2
  C:08AAH         PUBLIC        A7139Config_PageB
  B:0080H.3       PUBLIC        P0_3
  B:0080H.4       PUBLIC        P0_4
  C:04FCH         SYMBOL        _A7139_SetFreq
  B:0080H.5       PUBLIC        P0_5
  C:0B3AH         SYMBOL        _A7139_ReadPageA
  B:0080H.6       PUBLIC        P0_6
  B:0080H.7       PUBLIC        P0_7
  C:0AAFH         SYMBOL        _A7139_WritePageA
  C:0A19H         PUBLIC        _A7139_SetPackLen
  C:0A4BH         SYMBOL        _A7139_WritePageB
  C:080DH         PUBLIC        _A7139_IsBatteryLow
  C:09AFH         PUBLIC        A7139_WOR_BySync
  C:09E4H         PUBLIC        A7139_WOR_ByPreamble
  C:069CH         SYMBOL        A7139_Config
  C:0B74H         PUBLIC        A7139_ReadPID
  C:08B4H         PUBLIC        _A7139_SetCID
  C:07A6H         PUBLIC        A7139_GetRSSI
  C:0736H         PUBLIC        A7139_RCOSC_Cal
  C:0C4CH         PUBLIC        _StrobeCmd
  C:093FH         PUBLIC        _A7139_Init
  C:086AH         PUBLIC        A7139Config
  C:0979H         PUBLIC        A7139_WOT
  C:0C1AH         SYMBOL        _A7139_ReadReg
  C:0AF8H         SYMBOL        L?0087
  C:0AFFH         SYMBOL        L?0088
  -------         PROC          L?0086
  -------         ENDPROC       L?0086
  C:0AF8H         SYMBOL        L?0087
  C:0AFFH         SYMBOL        L?0088
  -------         PROC          _A7139_WRITEREG
  D:0007H         SYMBOL        regAddr
  D:0020H         SYMBOL        regVal
BL51 BANKED LINKER/LOCATER V6.00                                                      09/09/2014  23:06:00  PAGE 7


  C:0B06H         LINE#         9
  C:0B0AH         LINE#         10
  C:0B0AH         LINE#         11
  C:0B0CH         LINE#         12
  C:0B0CH         LINE#         13
  C:0B0FH         LINE#         14
  C:0B10H         LINE#         15
  C:0B17H         LINE#         16
  C:0B19H         LINE#         17
  -------         ENDPROC       _A7139_WRITEREG
  -------         PROC          _A7139_READREG
  D:0007H         SYMBOL        regAddr
  -------         DO            
  D:0006H         SYMBOL        regVal
  -------         ENDDO         
  C:0C1AH         LINE#         19
  C:0C1AH         LINE#         20
  C:0C1AH         LINE#         22
  C:0C1CH         LINE#         23
  C:0C1FH         LINE#         24
  C:0C22H         LINE#         25
  C:0C23H         LINE#         26
  C:0C26H         LINE#         27
  C:0C28H         LINE#         28
  C:0C28H         LINE#         29
  -------         ENDPROC       _A7139_READREG
  -------         PROC          L?0089
  -------         ENDPROC       L?0089
  -------         PROC          _A7139_WRITEPAGEA
  D:0007H         SYMBOL        address
  D:0016H         SYMBOL        dataWord
  -------         DO            
  D:0004H         SYMBOL        tmp
  -------         ENDDO         
  C:0AAFH         LINE#         31
  C:0AB3H         LINE#         32
  C:0AB3H         LINE#         34
  C:0AB5H         LINE#         35
  C:0AC5H         LINE#         36
  C:0ACAH         LINE#         37
  -------         ENDPROC       _A7139_WRITEPAGEA
  -------         PROC          _A7139_WRITEPAGEB
  D:0007H         SYMBOL        address
  D:001EH         SYMBOL        dataWord
  -------         DO            
  D:0004H         SYMBOL        tmp
  -------         ENDDO         
  C:0A4BH         LINE#         40
  C:0A4FH         LINE#         41
  C:0A4FH         LINE#         43
  C:0A53H         LINE#         44
  C:0A6CH         LINE#         45
  C:0A71H         LINE#         46
  -------         ENDPROC       _A7139_WRITEPAGEB
  -------         PROC          _A7139_READPAGEA
  D:0007H         SYMBOL        address
  -------         DO            
BL51 BANKED LINKER/LOCATER V6.00                                                      09/09/2014  23:06:00  PAGE 8


  D:0004H         SYMBOL        tmp
  -------         ENDDO         
  C:0B3AH         LINE#         49
  C:0B3AH         LINE#         50
  C:0B3AH         LINE#         52
  C:0B3CH         LINE#         53
  C:0B4CH         LINE#         54
  C:0B51H         LINE#         55
  C:0B56H         LINE#         56
  C:0B56H         LINE#         57
  -------         ENDPROC       _A7139_READPAGEA
  -------         PROC          A7139_CONFIG
  -------         DO            
  D:000DH         SYMBOL        i
  -------         ENDDO         
  C:069CH         LINE#         59
  C:069CH         LINE#         60
  C:069CH         LINE#         62
  C:069FH         LINE#         63
  C:06C4H         LINE#         64
  C:06C7H         LINE#         65
  C:06ECH         LINE#         66
  C:06EFH         LINE#         67
  C:070DH         LINE#         68
  C:0710H         LINE#         69
  C:0735H         LINE#         70
  -------         ENDPROC       A7139_CONFIG
  -------         PROC          A7139_CAL
  -------         DO            
  D:000DH         SYMBOL        fb
  D:000EH         SYMBOL        fcd
  D:000FH         SYMBOL        fbcf
  D:0010H         SYMBOL        vb
  D:0011H         SYMBOL        vbcf
  D:0012H         SYMBOL        vcb
  D:0013H         SYMBOL        vccf
  D:0014H         SYMBOL        tmp
  -------         ENDDO         
  C:03EEH         LINE#         72
  C:03EEH         LINE#         73
  C:03EEH         LINE#         79
  C:0401H         LINE#         80
  C:0401H         LINE#         81
  C:040AH         LINE#         82
  C:0416H         LINE#         84
  C:041FH         LINE#         85
  C:0424H         LINE#         86
  C:042DH         LINE#         87
  C:043EH         LINE#         88
  C:043EH         LINE#         89
  C:043EH         LINE#         91
  C:043EH         LINE#         93
  C:0447H         LINE#         94
  C:044CH         LINE#         95
  C:045DH         LINE#         96
  C:045DH         LINE#         97
  C:045DH         LINE#         99
BL51 BANKED LINKER/LOCATER V6.00                                                      09/09/2014  23:06:00  PAGE 9


  C:045DH         LINE#         101
  C:0466H         LINE#         102
  C:046FH         LINE#         103
  C:0480H         LINE#         104
  C:048AH         LINE#         105
  C:048AH         LINE#         106
  C:0493H         LINE#         107
  C:0498H         LINE#         108
  C:04A7H         LINE#         109
  C:04AFH         LINE#         110
  C:04BEH         LINE#         114
  C:04CFH         LINE#         115
  C:04CFH         LINE#         116
  C:04D8H         LINE#         117
  C:04DDH         LINE#         119
  C:04E6H         LINE#         120
  C:04F5H         LINE#         121
  C:04FBH         LINE#         122
  C:04FBH         LINE#         123
  C:04FBH         LINE#         125
  C:04FBH         LINE#         126
  -------         ENDPROC       A7139_CAL
  -------         PROC          _STROBECMD
  D:0007H         SYMBOL        cmd
  C:0C4CH         LINE#         128
  C:0C4CH         LINE#         129
  C:0C4CH         LINE#         130
  C:0C4EH         LINE#         131
  C:0C51H         LINE#         132
  C:0C53H         LINE#         133
  -------         ENDPROC       _STROBECMD
  -------         PROC          _A7139_INIT
  D:0009H         SYMBOL        rfFreq
  C:093FH         LINE#         135
  C:0947H         LINE#         136
  C:0947H         LINE#         137
  C:0949H         LINE#         138
  C:094BH         LINE#         139
  C:094DH         LINE#         140
  C:094FH         LINE#         141
  C:0951H         LINE#         142
  C:0953H         LINE#         143
  C:0958H         LINE#         144
  C:095BH         LINE#         145
  C:0960H         LINE#         146
  C:096BH         LINE#         147
  C:0976H         LINE#         148
  -------         ENDPROC       _A7139_INIT
  -------         PROC          _A7139_SETCID
  D:000DH         SYMBOL        id
  C:08B4H         LINE#         151
  C:08BCH         LINE#         152
  C:08BCH         LINE#         153
  C:08BEH         LINE#         154
  C:08C3H         LINE#         155
  C:08D3H         LINE#         156
  C:08E3H         LINE#         157
BL51 BANKED LINKER/LOCATER V6.00                                                      09/09/2014  23:06:00  PAGE 10


  C:08F3H         LINE#         158
  C:08F8H         LINE#         159
  C:08FAH         LINE#         160
  -------         ENDPROC       _A7139_SETCID
  -------         PROC          A7139_READPID
  -------         DO            
  D:0006H         SYMBOL        pid
  D:0004H         SYMBOL        pagAddr
  -------         ENDDO         
  C:0B74H         LINE#         162
  C:0B74H         LINE#         163
  C:0B74H         LINE#         165
  C:0B75H         LINE#         166
  C:0B84H         LINE#         167
  C:0B89H         LINE#         168
  C:0B8EH         LINE#         169
  C:0B8EH         LINE#         170
  -------         ENDPROC       A7139_READPID
  -------         PROC          _A7139_SETFREQ
  D:000DH         SYMBOL        rfFreq
  -------         DO            
  D:0011H         SYMBOL        divFreq
  D:0015H         SYMBOL        intFreq
  D:0016H         SYMBOL        fltFreq
  D:001AH         SYMBOL        fpFreg
  D:001CH         SYMBOL        orgVal
  -------         ENDDO         
  C:04FCH         LINE#         172
  C:0504H         LINE#         173
  C:0504H         LINE#         174
  C:0517H         LINE#         175
  C:051CH         LINE#         176
  C:053DH         LINE#         177
  C:0556H         LINE#         179
  C:055BH         LINE#         181
  C:0569H         LINE#         182
  C:0572H         LINE#         184
  C:0580H         LINE#         185
  C:0589H         LINE#         187
  C:05A2H         LINE#         188
  C:05A6H         LINE#         190
  C:05AFH         LINE#         191
  C:05B8H         LINE#         193
  C:05C2H         LINE#         194
  C:05CFH         LINE#         196
  C:05D8H         LINE#         198
  -------         ENDPROC       _A7139_SETFREQ
  -------         PROC          _A7139_SETDATARATE
  D:0022H         SYMBOL        datRate
  -------         DO            
  D:0023H         SYMBOL        segCSC
  D:0025H         SYMBOL        segSDR
  D:0027H         SYMBOL        segIFB
  D:0006H         SYMBOL        segDMO
  -------         ENDDO         
  C:05E0H         LINE#         201
  C:05E2H         LINE#         202
BL51 BANKED LINKER/LOCATER V6.00                                                      09/09/2014  23:06:00  PAGE 11


  C:05E2H         LINE#         204
  C:05E7H         LINE#         205
  C:05F7H         LINE#         206
  C:05FEH         LINE#         207
  C:060EH         LINE#         208
  C:0611H         LINE#         209
  C:061BH         LINE#         210
  C:0631H         LINE#         211
  C:0631H         LINE#         212
  C:0631H         LINE#         213
  C:0631H         LINE#         215
  C:063DH         LINE#         217
  C:0641H         LINE#         219
  C:0641H         LINE#         220
  C:0641H         LINE#         221
  C:0643H         LINE#         222
  C:0643H         LINE#         223
  C:0643H         LINE#         225
  C:064FH         LINE#         227
  C:0656H         LINE#         229
  C:0656H         LINE#         230
  C:0656H         LINE#         231
  C:0658H         LINE#         232
  C:0658H         LINE#         233
  C:0658H         LINE#         235
  C:0664H         LINE#         237
  C:066DH         LINE#         239
  C:0671H         LINE#         240
  C:0671H         LINE#         241
  C:0673H         LINE#         242
  C:0673H         LINE#         243
  C:0673H         LINE#         245
  C:067FH         LINE#         247
  C:0688H         LINE#         249
  C:0694H         LINE#         250
  C:0694H         LINE#         251
  C:0696H         LINE#         252
  C:0696H         LINE#         253
  C:0696H         LINE#         260
  C:0696H         LINE#         261
  C:0696H         LINE#         262
  C:0696H         LINE#         263
  C:0699H         LINE#         264
  C:0699H         LINE#         265
  C:069BH         LINE#         266
  -------         ENDPROC       _A7139_SETDATARATE
  -------         PROC          _A7139_SETPACKLEN
  D:002FH         SYMBOL        len
  -------         DO            
  D:0004H         SYMBOL        pagVal
  -------         ENDDO         
  C:0A19H         LINE#         268
  C:0A1BH         LINE#         269
  C:0A1BH         LINE#         271
  C:0A20H         LINE#         273
  C:0A26H         LINE#         274
  C:0A37H         LINE#         276
BL51 BANKED LINKER/LOCATER V6.00                                                      09/09/2014  23:06:00  PAGE 12


  C:0A43H         LINE#         277
  C:0A48H         LINE#         278
  C:0A4AH         LINE#         279
  -------         ENDPROC       _A7139_SETPACKLEN
  -------         PROC          _A7139_ISBATTERYLOW
  D:0030H         SYMBOL        low2_x
  -------         DO            
  D:0004H         SYMBOL        pagVal
  -------         ENDDO         
  C:080DH         LINE#         281
  C:080FH         LINE#         282
  C:080FH         LINE#         284
  C:081DH         LINE#         285
  C:0820H         LINE#         286
  C:0825H         LINE#         288
  C:0833H         LINE#         289
  C:0848H         LINE#         290
  C:084DH         LINE#         292
  C:0869H         LINE#         293
  -------         ENDPROC       _A7139_ISBATTERYLOW
  -------         PROC          A7139_GETRSSI
  -------         DO            
  D:0029H         SYMBOL        rssi
  D:002AH         SYMBOL        t_retry
  -------         ENDDO         
  C:07A6H         LINE#         294
  C:07A6H         LINE#         295
  C:07A6H         LINE#         297
  C:07ACH         LINE#         299
  C:07B1H         LINE#         301
  C:07C2H         LINE#         303
  C:07D2H         LINE#         305
  C:07D2H         LINE#         306
  C:07DCH         LINE#         308
  C:07EDH         LINE#         309
  C:07F8H         LINE#         310
  C:0802H         LINE#         312
  C:0805H         LINE#         313
  C:080AH         LINE#         314
  C:080CH         LINE#         315
  -------         ENDPROC       A7139_GETRSSI
  -------         PROC          A7139_RCOSC_CAL
  -------         DO            
  D:002CH         SYMBOL        retry
  D:0006H         SYMBOL        calbrtVal
  D:002DH         SYMBOL        t_retry
  -------         ENDDO         
  C:0736H         LINE#         316
  C:0736H         LINE#         317
  C:0736H         LINE#         318
  C:0739H         LINE#         319
  C:073FH         LINE#         321
  C:0750H         LINE#         322
  C:0750H         LINE#         324
  C:0761H         LINE#         325
  C:0761H         LINE#         326
  C:076CH         LINE#         327
BL51 BANKED LINKER/LOCATER V6.00                                                      09/09/2014  23:06:00  PAGE 13


  C:077BH         LINE#         329
  C:0789H         LINE#         330
  C:0799H         LINE#         331
  C:079CH         LINE#         332
  C:07A3H         LINE#         333
  C:07A5H         LINE#         334
  -------         ENDPROC       A7139_RCOSC_CAL
  -------         PROC          A7139_WOT
  C:0979H         LINE#         335
  C:0979H         LINE#         336
  C:0979H         LINE#         337
  C:097FH         LINE#         338
  C:0982H         LINE#         339
  C:0987H         LINE#         341
  C:0990H         LINE#         343
  C:0999H         LINE#         345
  C:09AAH         LINE#         347
  C:09ADH         LINE#         348
  -------         ENDPROC       A7139_WOT
  -------         PROC          A7139_WOR_BYSYNC
  C:09AFH         LINE#         350
  C:09AFH         LINE#         351
  C:09AFH         LINE#         352
  C:09B4H         LINE#         354
  C:09BDH         LINE#         356
  C:09C6H         LINE#         357
  C:09CCH         LINE#         358
  C:09CFH         LINE#         360
  C:09E0H         LINE#         362
  C:09E3H         LINE#         364
  -------         ENDPROC       A7139_WOR_BYSYNC
  -------         PROC          A7139_WOR_BYPREAMBLE
  C:09E4H         LINE#         365
  C:09E4H         LINE#         366
  C:09E4H         LINE#         367
  C:09E9H         LINE#         368
  C:09F2H         LINE#         373
  C:09FBH         LINE#         375
  C:0A01H         LINE#         376
  C:0A04H         LINE#         377
  C:0A15H         LINE#         379
  C:0A18H         LINE#         382
  -------         ENDPROC       A7139_WOR_BYPREAMBLE
  -------         ENDMOD        A7139

  -------         MODULE        PLATFORM
  C:0000H         SYMBOL        _ICE_DUMMY_
  B:0080H.3       PUBLIC        P0_3
  B:0080H.4       PUBLIC        P0_4
  C:0BDCH         PUBLIC        _Delay10ms
  C:0C08H         PUBLIC        _Delay10us
  C:0B8FH         PUBLIC        _SPIx_WriteByte
  C:0B57H         PUBLIC        _SPIx_WriteWord
  C:0BAAH         PUBLIC        SPIx_ReadByte
  C:0A7AH         PUBLIC        SPIx_ReadWord
  -------         PROC          _DELAY10MS
  D:0007H         SYMBOL        n
BL51 BANKED LINKER/LOCATER V6.00                                                      09/09/2014  23:06:00  PAGE 14


  -------         DO            
  D:0006H         SYMBOL        i
  D:0005H         SYMBOL        j
  -------         ENDDO         
  C:0BDCH         LINE#         3
  C:0BDCH         LINE#         4
  C:0BDCH         LINE#         6
  C:0BE2H         LINE#         7
  C:0BE2H         LINE#         8
  C:0BEAH         LINE#         9
  C:0BF3H         LINE#         10
  C:0BF3H         LINE#         11
  -------         ENDPROC       _DELAY10MS
  -------         PROC          _DELAY10US
  D:0007H         SYMBOL        n
  -------         DO            
  D:0006H         SYMBOL        i
  -------         ENDDO         
  C:0C08H         LINE#         13
  C:0C08H         LINE#         14
  C:0C08H         LINE#         17
  C:0C0EH         LINE#         18
  C:0C0EH         LINE#         19
  C:0C19H         LINE#         20
  C:0C19H         LINE#         21
  -------         ENDPROC       _DELAY10US
  -------         PROC          _SPIX_WRITEBYTE
  D:0007H         SYMBOL        dat
  -------         DO            
  D:0006H         SYMBOL        i
  -------         ENDDO         
  C:0B8FH         LINE#         23
  C:0B8FH         LINE#         24
  C:0B8FH         LINE#         26
  C:0B91H         LINE#         27
  C:0B91H         LINE#         28
  C:0B95H         LINE#         29
  C:0B99H         LINE#         31
  C:0B9BH         LINE#         32
  C:0B9CH         LINE#         33
  C:0B9EH         LINE#         34
  C:0B9FH         LINE#         35
  C:0BA1H         LINE#         36
  C:0BA5H         LINE#         37
  C:0BA9H         LINE#         38
  -------         ENDPROC       _SPIX_WRITEBYTE
  -------         PROC          _SPIX_WRITEWORD
  D:0006H         SYMBOL        word
  -------         DO            
  D:0005H         SYMBOL        i
  -------         ENDDO         
  C:0B57H         LINE#         40
  C:0B57H         LINE#         41
  C:0B57H         LINE#         43
  C:0B59H         LINE#         44
  C:0B59H         LINE#         45
  C:0B5DH         LINE#         46
BL51 BANKED LINKER/LOCATER V6.00                                                      09/09/2014  23:06:00  PAGE 15


  C:0B61H         LINE#         48
  C:0B63H         LINE#         49
  C:0B65H         LINE#         50
  C:0B66H         LINE#         51
  C:0B68H         LINE#         52
  C:0B6FH         LINE#         53
  C:0B73H         LINE#         54
  -------         ENDPROC       _SPIX_WRITEWORD
  -------         PROC          SPIX_READBYTE
  -------         DO            
  D:0006H         SYMBOL        i
  D:0007H         SYMBOL        tmp
  -------         ENDDO         
  C:0BAAH         LINE#         56
  C:0BAAH         LINE#         57
  C:0BAAH         LINE#         59
  C:0BACH         LINE#         60
  C:0BAEH         LINE#         61
  C:0BAEH         LINE#         62
  C:0BB4H         LINE#         63
  C:0BB9H         LINE#         65
  C:0BBAH         LINE#         66
  C:0BBCH         LINE#         67
  C:0BBDH         LINE#         68
  C:0BBFH         LINE#         69
  C:0BC3H         LINE#         70
  C:0BC3H         LINE#         71
  -------         ENDPROC       SPIX_READBYTE
  -------         PROC          SPIX_READWORD
  -------         DO            
  D:0002H         SYMBOL        i
  D:0004H         SYMBOL        tmp
  -------         ENDDO         
  C:0A7AH         LINE#         73
  C:0A7AH         LINE#         74
  C:0A7AH         LINE#         76
  C:0A7CH         LINE#         77
  C:0A7FH         LINE#         78
  C:0A7FH         LINE#         79
  C:0A85H         LINE#         80
  C:0A8FH         LINE#         82
  C:0A93H         LINE#         83
  C:0A95H         LINE#         84
  C:0A96H         LINE#         85
  C:0A98H         LINE#         86
  C:0AA3H         LINE#         87
  C:0AA7H         LINE#         88
  -------         ENDPROC       SPIX_READWORD
  -------         ENDMOD        PLATFORM

  -------         MODULE        ?C?FPADD
  C:000AH         PUBLIC        ?C?FPADD
  C:0006H         PUBLIC        ?C?FPSUB
  -------         ENDMOD        ?C?FPADD

  -------         MODULE        ?C?FPMUL
  C:00FBH         PUBLIC        ?C?FPMUL
BL51 BANKED LINKER/LOCATER V6.00                                                      09/09/2014  23:06:00  PAGE 16


  -------         ENDMOD        ?C?FPMUL

  -------         MODULE        ?C?FPDIV
  C:0204H         PUBLIC        ?C?FPDIV
  -------         ENDMOD        ?C?FPDIV

  -------         MODULE        ?C?FPCMP
  C:02A3H         PUBLIC        ?C?FPCMP
  C:02A1H         PUBLIC        ?C?FPCMP3
  -------         ENDMOD        ?C?FPCMP

  -------         MODULE        ?C?FCAST
  C:0318H         PUBLIC        ?C?FCASTC
  C:0313H         PUBLIC        ?C?FCASTI
  C:030EH         PUBLIC        ?C?FCASTL
  -------         ENDMOD        ?C?FCAST

  -------         MODULE        ?C?CASTF
  C:034CH         PUBLIC        ?C?CASTF
  -------         ENDMOD        ?C?CASTF

  -------         MODULE        ?C?LNEG
  C:03CDH         PUBLIC        ?C?LNEG
  -------         ENDMOD        ?C?LNEG

  -------         MODULE        ?C?ULSHR
  C:03DBH         PUBLIC        ?C?ULSHR
  -------         ENDMOD        ?C?ULSHR

*** WARNING L16: UNCALLED SEGMENT, IGNORED FOR OVERLAY PROCESS
    SEGMENT: ?PR?A7139_READPID?A7139

*** WARNING L16: UNCALLED SEGMENT, IGNORED FOR OVERLAY PROCESS
    SEGMENT: ?PR?_A7139_SETDATARATE?A7139

*** WARNING L16: UNCALLED SEGMENT, IGNORED FOR OVERLAY PROCESS
    SEGMENT: ?PR?_A7139_SETPACKLEN?A7139

*** WARNING L16: UNCALLED SEGMENT, IGNORED FOR OVERLAY PROCESS
    SEGMENT: ?PR?_A7139_ISBATTERYLOW?A7139

*** WARNING L16: UNCALLED SEGMENT, IGNORED FOR OVERLAY PROCESS
    SEGMENT: ?PR?A7139_GETRSSI?A7139

*** WARNING L16: UNCALLED SEGMENT, IGNORED FOR OVERLAY PROCESS
    SEGMENT: ?PR?A7139_WOT?A7139

*** WARNING L16: UNCALLED SEGMENT, IGNORED FOR OVERLAY PROCESS
    SEGMENT: ?PR?A7139_WOR_BYSYNC?A7139

*** WARNING L16: UNCALLED SEGMENT, IGNORED FOR OVERLAY PROCESS
    SEGMENT: ?PR?A7139_WOR_BYPREAMBLE?A7139

Program Size: data=114.0 xdata=0 code=3156
LINK/LOCATE RUN COMPLETE.  8 WARNING(S),  0 ERROR(S)
